; ModuleID = '13/1336.c'
source_filename = "13/1336.c"
target datalayout = "e-m:e-p270:32:32-p271:32:32-p272:64:64-i64:64-f80:128-n8:16:32:64-S128"
target triple = "x86_64-pc-linux-gnu"

@.str = private unnamed_addr constant [3 x i8] c"%d\00", align 1
@.str.1 = private unnamed_addr constant [4 x i8] c" %d\00", align 1

; Function Attrs: noinline nounwind uwtable
define dso_local i32 @main() #0 {
  %1 = alloca i32, align 4
  %2 = alloca i32, align 4
  %3 = alloca i32, align 4
  %4 = alloca i32, align 4
  %5 = alloca i32, align 4
  %6 = alloca i32*, align 8
  store i32 0, i32* %1, align 4
  %7 = call i32 (i8*, ...) @__isoc99_scanf(i8* getelementptr inbounds ([3 x i8], [3 x i8]* @.str, i64 0, i64 0), i32* %2)
  %8 = load i32, i32* %2, align 4
  %9 = sext i32 %8 to i64
  %10 = mul i64 4, %9
  %11 = call noalias i8* @malloc(i64 %10) #3
  %12 = bitcast i8* %11 to i32*
  store i32* %12, i32** %6, align 8
  store i32 0, i32* %3, align 4
  br label %13

13:                                               ; preds = %23, %0
  %14 = load i32, i32* %3, align 4
  %15 = load i32, i32* %2, align 4
  %16 = icmp slt i32 %14, %15
  br i1 %16, label %17, label %26

17:                                               ; preds = %13
  %18 = load i32*, i32** %6, align 8
  %19 = load i32, i32* %3, align 4
  %20 = sext i32 %19 to i64
  %21 = getelementptr inbounds i32, i32* %18, i64 %20
  %22 = call i32 (i8*, ...) @__isoc99_scanf(i8* getelementptr inbounds ([3 x i8], [3 x i8]* @.str, i64 0, i64 0), i32* %21)
  br label %23

23:                                               ; preds = %17
  %24 = load i32, i32* %3, align 4
  %25 = add nsw i32 %24, 1
  store i32 %25, i32* %3, align 4
  br label %13

26:                                               ; preds = %13
  %27 = load i32*, i32** %6, align 8
  %28 = load i32, i32* %27, align 4
  %29 = call i32 (i8*, ...) @printf(i8* getelementptr inbounds ([3 x i8], [3 x i8]* @.str, i64 0, i64 0), i32 %28)
  store i32 1, i32* %3, align 4
  br label %30

30:                                               ; preds = %67, %26
  %31 = load i32, i32* %3, align 4
  %32 = load i32, i32* %2, align 4
  %33 = icmp slt i32 %31, %32
  br i1 %33, label %34, label %70

34:                                               ; preds = %30
  store i32 0, i32* %5, align 4
  store i32 0, i32* %4, align 4
  br label %35

35:                                               ; preds = %53, %34
  %36 = load i32, i32* %4, align 4
  %37 = load i32, i32* %3, align 4
  %38 = icmp slt i32 %36, %37
  br i1 %38, label %39, label %56

39:                                               ; preds = %35
  %40 = load i32*, i32** %6, align 8
  %41 = load i32, i32* %3, align 4
  %42 = sext i32 %41 to i64
  %43 = getelementptr inbounds i32, i32* %40, i64 %42
  %44 = load i32, i32* %43, align 4
  %45 = load i32*, i32** %6, align 8
  %46 = load i32, i32* %4, align 4
  %47 = sext i32 %46 to i64
  %48 = getelementptr inbounds i32, i32* %45, i64 %47
  %49 = load i32, i32* %48, align 4
  %50 = icmp eq i32 %44, %49
  br i1 %50, label %51, label %52

51:                                               ; preds = %39
  store i32 1, i32* %5, align 4
  br label %56

52:                                               ; preds = %39
  br label %53

53:                                               ; preds = %52
  %54 = load i32, i32* %4, align 4
  %55 = add nsw i32 %54, 1
  store i32 %55, i32* %4, align 4
  br label %35

56:                                               ; preds = %51, %35
  %57 = load i32, i32* %5, align 4
  %58 = icmp eq i32 %57, 0
  br i1 %58, label %59, label %66

59:                                               ; preds = %56
  %60 = load i32*, i32** %6, align 8
  %61 = load i32, i32* %3, align 4
  %62 = sext i32 %61 to i64
  %63 = getelementptr inbounds i32, i32* %60, i64 %62
  %64 = load i32, i32* %63, align 4
  %65 = call i32 (i8*, ...) @printf(i8* getelementptr inbounds ([4 x i8], [4 x i8]* @.str.1, i64 0, i64 0), i32 %64)
  br label %66

66:                                               ; preds = %59, %56
  br label %67

67:                                               ; preds = %66
  %68 = load i32, i32* %3, align 4
  %69 = add nsw i32 %68, 1
  store i32 %69, i32* %3, align 4
  br label %30

70:                                               ; preds = %30
  %71 = load i32*, i32** %6, align 8
  %72 = bitcast i32* %71 to i8*
  call void @free(i8* %72) #3
  ret i32 0
}

declare dso_local i32 @__isoc99_scanf(i8*, ...) #1

; Function Attrs: nounwind
declare dso_local noalias i8* @malloc(i64) #2

declare dso_local i32 @printf(i8*, ...) #1

; Function Attrs: nounwind
declare dso_local void @free(i8*) #2


!llvm.module.flags = !{!0}
!llvm.ident = !{!1}

!0 = !{i32 1, !"wchar_size", i32 4}
!1 = !{!"clang version 10.0.0-4ubuntu1 "}
